(dp0
V1934
p1
(dp2
S'numMeasure'
p3
I5
sS'dist'
p4
F16.374000000000002
ssV872D
p5
(dp6
g3
I5
sg4
F16.612000000000002
ssV0288
p7
(dp8
g3
I5
sg4
F3.6419999999999995
ssVCB35
p9
(dp10
g3
I4
sg4
F34.4175
ss.