(dp0
V0288
p1
(dp2
S'numMeasure'
p3
I5
sS'dist'
p4
F3.8600000000000003
ssV872D
p5
(dp6
g3
I4
sg4
F15.7325
ssV1485
p7
(dp8
g3
I5
sg4
F3.5099999999999993
ssV1934
p9
(dp10
g3
I3
sg4
F16.393333333333334
ss.